target datalayout = "e-m:e-p270:32:32-p271:32:32-p272:64:64-i64:64-i128:128-f80:128-n8:16:32:64-S128"
target triple = "x86_64-pc-linux-gnu"

%struct.AVFormatContext = type { ptr, ptr, ptr, ptr, ptr, i32, i32, ptr, i32, ptr, i32, ptr, ptr, i64, i64, i64, i32, i32, i32, i64, i64, ptr, i32, i32, ptr, i32, i32, i32, i32, ptr, i64, i32, i32, %struct.AVIOInterruptCB, i32, i32, i32, i32, i64, i32, i32, i32, i32, i32, i32, i32, i32, i32, i32, i32, i32, i64, i32, i32, i32, i32, i32, ptr, ptr, ptr, ptr, i32, ptr, ptr, ptr, ptr, i32, ptr, ptr, i64, ptr, ptr, ptr, i64 }
%struct.AVIOInterruptCB = type { ptr, ptr }
%struct.FFInputFormat = type { %struct.AVInputFormat, i32, i32, i32, ptr, ptr, ptr, ptr, ptr, ptr, ptr, ptr, ptr, ptr }
%struct.AVInputFormat = type { ptr, ptr, i32, ptr, ptr, ptr, ptr }

; Function Attrs: inlinehint nounwind uwtable
define internal ptr @ffifmt(ptr noundef %0) #5 {
  %2 = alloca ptr, align 8
  store ptr %0, ptr %2, align 8, !tbaa !97
  %3 = load ptr, ptr %2, align 8, !tbaa !97
  ret ptr %3
}

; Function Attrs: nounwind uwtable
define i32 @av_read_play(ptr noundef %0) #0 {
  %2 = alloca i32, align 4
  %3 = alloca ptr, align 8
  store ptr %0, ptr %3, align 8, !tbaa !35
  %4 = load ptr, ptr %3, align 8, !tbaa !35
  %5 = getelementptr inbounds nuw %struct.AVFormatContext, ptr %4, i32 0, i32 1
  %6 = load ptr, ptr %5, align 8, !tbaa !91
  %7 = call ptr @ffifmt(ptr noundef %6)
  %8 = getelementptr inbounds nuw %struct.FFInputFormat, ptr %7, i32 0, i32 10
  %9 = load ptr, ptr %8, align 8, !tbaa !92
  %10 = icmp ne ptr %9, null
  br i1 %10, label %11, label %20

11:                                               ; preds = %1
  %12 = load ptr, ptr %3, align 8, !tbaa !35
  %13 = getelementptr inbounds nuw %struct.AVFormatContext, ptr %12, i32 0, i32 1
  %14 = load ptr, ptr %13, align 8, !tbaa !91
  %15 = call ptr @ffifmt(ptr noundef %14)
  %16 = getelementptr inbounds nuw %struct.FFInputFormat, ptr %15, i32 0, i32 10
  %17 = load ptr, ptr %16, align 8, !tbaa !92
  %18 = load ptr, ptr %3, align 8, !tbaa !35
  %19 = call i32 %17(ptr noundef %18)
  store i32 %19, ptr %2, align 4
  br label %31

20:                                               ; preds = %1
  %21 = load ptr, ptr %3, align 8, !tbaa !35
  %22 = getelementptr inbounds nuw %struct.AVFormatContext, ptr %21, i32 0, i32 4
  %23 = load ptr, ptr %22, align 8, !tbaa !96
  %24 = icmp ne ptr %23, null
  br i1 %24, label %25, label %30

25:                                               ; preds = %20
  %26 = load ptr, ptr %3, align 8, !tbaa !35
  %27 = getelementptr inbounds nuw %struct.AVFormatContext, ptr %26, i32 0, i32 4
  %28 = load ptr, ptr %27, align 8, !tbaa !96
  %29 = call i32 @avio_pause(ptr noundef %28, i32 noundef 0)
  store i32 %29, ptr %2, align 4
  br label %31

30:                                               ; preds = %20
  store i32 -38, ptr %2, align 4
  br label %31

31:                                               ; preds = %30, %25, %11
  %32 = load i32, ptr %2, align 4
  ret i32 %32
}