; Function Attrs: nounwind uwtable
define i32 @av_read_play(ptr noundef %0) local_unnamed_addr #2 {
  %2 = getelementptr inbounds nuw i8, ptr %0, i64 8
  %3 = load ptr, ptr %2, align 8, !tbaa !77
  %4 = getelementptr inbounds nuw i8, ptr %3, i64 120
  %5 = load ptr, ptr %4, align 8, !tbaa !78
  %.not = icmp eq ptr %5, null
  br i1 %.not, label %8, label %6

6:                                                ; preds = %1
  %7 = tail call i32 %5(ptr noundef nonnull %0) #6
  br label %13

8:                                                ; preds = %1
  %9 = getelementptr inbounds nuw i8, ptr %0, i64 32
  %10 = load ptr, ptr %9, align 8, !tbaa !82
  %.not6 = icmp eq ptr %10, null
  br i1 %.not6, label %13, label %11

11:                                               ; preds = %8
  %12 = tail call i32 @avio_pause(ptr noundef nonnull %10, i32 noundef 0) #6
  br label %13

13:                                               ; preds = %8, %11, %6
  %.0 = phi i32 [ %7, %6 ], [ %12, %11 ], [ -38, %8 ]
  ret i32 %.0
}